target datalayout = "e-m:e-p270:32:32-p271:32:32-p272:64:64-i64:64-i128:128-f80:128-n8:16:32:64-S128"
target triple = "x86_64-pc-linux-gnu"

%struct.nameData = type { [64 x i8] }
%struct.FormData_pg_ts_template = type { i32, %struct.nameData, i32, i32, i32 }
%struct.HeapTupleData = type { i32, %struct.ItemPointerData, i32, ptr }
%struct.ItemPointerData = type { %struct.BlockIdData, i16 }
%struct.BlockIdData = type { i16, i16 }
%struct.HeapTupleHeaderData = type { %union.anon, %struct.ItemPointerData, i16, i16, i8, [0 x i8] }
%union.anon = type { %struct.HeapTupleFields }
%struct.HeapTupleFields = type { i32, i32, %union.anon.1 }
%union.anon.1 = type { i32 }

@.str.1 = private unnamed_addr constant [14 x i8] c"tsearchcmds.c\00", align 1
@IsUnderPostmaster = external global i8, align 1
@.str.33 = private unnamed_addr constant [48 x i8] c"cache lookup failed for text search template %u\00", align 1
@__func__.verify_dictoptions = private unnamed_addr constant [19 x i8] c"verify_dictoptions\00", align 1
@.str.34 = private unnamed_addr constant [50 x i8] c"text search template \22%s\22 does not accept options\00", align 1

; Function Attrs: inlinehint nounwind uwtable
define internal i64 @PointerGetDatum(ptr noundef %0) #5 {
  %2 = alloca ptr, align 8
  store ptr %0, ptr %2, align 8
  %3 = load ptr, ptr %2, align 8
  %4 = ptrtoint ptr %3 to i64
  ret i64 %4
}

; Function Attrs: inlinehint nounwind uwtable
define internal ptr @GETSTRUCT(ptr noundef %0) #5 {
  %2 = alloca ptr, align 8
  store ptr %0, ptr %2, align 8
  %3 = load ptr, ptr %2, align 8
  %4 = getelementptr inbounds nuw %struct.HeapTupleData, ptr %3, i32 0, i32 3
  %5 = load ptr, ptr %4, align 8
  %6 = load ptr, ptr %2, align 8
  %7 = getelementptr inbounds nuw %struct.HeapTupleData, ptr %6, i32 0, i32 3
  %8 = load ptr, ptr %7, align 8
  %9 = getelementptr inbounds nuw %struct.HeapTupleHeaderData, ptr %8, i32 0, i32 4
  %10 = load i8, ptr %9, align 2
  %11 = zext i8 %10 to i32
  %12 = sext i32 %11 to i64
  %13 = getelementptr inbounds i8, ptr %5, i64 %12
  ret ptr %13
}

; Function Attrs: inlinehint nounwind uwtable
define internal i64 @ObjectIdGetDatum(i32 noundef %0) #5 {
  %2 = alloca i32, align 4
  store i32 %0, ptr %2, align 4
  %3 = load i32, ptr %2, align 4
  %4 = zext i32 %3 to i64
  ret i64 %4
}

; Function Attrs: nounwind uwtable
define internal void @verify_dictoptions(i32 noundef %0, ptr noundef %1) #0 {
  %3 = alloca i32, align 4
  %4 = alloca ptr, align 8
  %5 = alloca ptr, align 8
  %6 = alloca ptr, align 8
  %7 = alloca i32, align 4
  %8 = alloca i32, align 4
  store i32 %0, ptr %3, align 4
  store ptr %1, ptr %4, align 8
  call void @llvm.lifetime.start.p0(i64 8, ptr %5) #10
  call void @llvm.lifetime.start.p0(i64 8, ptr %6) #10
  call void @llvm.lifetime.start.p0(i64 4, ptr %7) #10
  %9 = load i8, ptr @IsUnderPostmaster, align 1, !range !7, !noundef !8
  %10 = trunc i8 %9 to i1
  br i1 %10, label %12, label %11

11:                                               ; preds = %2
  store i32 1, ptr %8, align 4
  br label %67

12:                                               ; preds = %2
  %13 = load i32, ptr %3, align 4
  %14 = call i64 @ObjectIdGetDatum(i32 noundef %13)
  %15 = call ptr @SearchSysCache1(i32 noundef 80, i64 noundef %14)
  store ptr %15, ptr %5, align 8
  %16 = load ptr, ptr %5, align 8
  %17 = icmp ne ptr %16, null
  br i1 %17, label %30, label %18

18:                                               ; preds = %12
  br label %19

19:                                               ; preds = %18
  br i1 true, label %20, label %22

20:                                               ; preds = %19
  %21 = call zeroext i1 @errstart_cold(i32 noundef 21, ptr noundef null) #11
  br i1 %21, label %24, label %27

22:                                               ; preds = %19
  %23 = call zeroext i1 @errstart(i32 noundef 21, ptr noundef null)
  br i1 %23, label %24, label %27

24:                                               ; preds = %22, %20
  %25 = load i32, ptr %3, align 4
  %26 = call i32 (ptr, ...) @errmsg_internal(ptr noundef @.str.33, i32 noundef %25)
  call void @errfinish(ptr noundef @.str.1, i32 noundef 361, ptr noundef @__func__.verify_dictoptions)
  br label %27

27:                                               ; preds = %24, %22, %20
  unreachable

28:                                               ; No predecessors!
  br label %29

29:                                               ; preds = %28
  br label %30

30:                                               ; preds = %29, %12
  %31 = load ptr, ptr %5, align 8
  %32 = call ptr @GETSTRUCT(ptr noundef %31)
  store ptr %32, ptr %6, align 8
  %33 = load ptr, ptr %6, align 8
  %34 = getelementptr inbounds nuw %struct.FormData_pg_ts_template, ptr %33, i32 0, i32 3
  %35 = load i32, ptr %34, align 4
  store i32 %35, ptr %7, align 4
  %36 = load i32, ptr %7, align 4
  %37 = icmp ne i32 %36, 0
  br i1 %37, label %58, label %38

38:                                               ; preds = %30
  %39 = load ptr, ptr %4, align 8
  %40 = icmp ne ptr %39, null
  br i1 %40, label %41, label %57

41:                                               ; preds = %38
  br label %42

42:                                               ; preds = %41
  br i1 true, label %43, label %45

43:                                               ; preds = %42
  %44 = call zeroext i1 @errstart_cold(i32 noundef 21, ptr noundef null) #11
  br i1 %44, label %47, label %54

45:                                               ; preds = %42
  %46 = call zeroext i1 @errstart(i32 noundef 21, ptr noundef null)
  br i1 %46, label %47, label %54

47:                                               ; preds = %45, %43
  %48 = call i32 @errcode(i32 noundef 16801924)
  %49 = load ptr, ptr %6, align 8
  %50 = getelementptr inbounds nuw %struct.FormData_pg_ts_template, ptr %49, i32 0, i32 1
  %51 = getelementptr inbounds nuw %struct.nameData, ptr %50, i32 0, i32 0
  %52 = getelementptr inbounds [64 x i8], ptr %51, i64 0, i64 0
  %53 = call i32 (ptr, ...) @errmsg(ptr noundef @.str.34, ptr noundef %52)
  call void @errfinish(ptr noundef @.str.1, i32 noundef 373, ptr noundef @__func__.verify_dictoptions)
  br label %54

54:                                               ; preds = %47, %45, %43
  unreachable

55:                                               ; No predecessors!
  br label %56

56:                                               ; preds = %55
  br label %57

57:                                               ; preds = %56, %38
  br label %65

58:                                               ; preds = %30
  %59 = load ptr, ptr %4, align 8
  %60 = call ptr @copyObjectImpl(ptr noundef %59)
  store ptr %60, ptr %4, align 8
  %61 = load i32, ptr %7, align 4
  %62 = load ptr, ptr %4, align 8
  %63 = call i64 @PointerGetDatum(ptr noundef %62)
  %64 = call i64 @OidFunctionCall1Coll(i32 noundef %61, i32 noundef 0, i64 noundef %63)
  br label %65

65:                                               ; preds = %58, %57
  %66 = load ptr, ptr %5, align 8
  call void @ReleaseSysCache(ptr noundef %66)
  store i32 0, ptr %8, align 4
  br label %67

67:                                               ; preds = %65, %11
  call void @llvm.lifetime.end.p0(i64 4, ptr %7) #10
  call void @llvm.lifetime.end.p0(i64 8, ptr %6) #10
  call void @llvm.lifetime.end.p0(i64 8, ptr %5) #10
  %68 = load i32, ptr %8, align 4
  switch i32 %68, label %70 [
    i32 0, label %69
    i32 1, label %69
  ]

69:                                               ; preds = %67, %67
  ret void

70:                                               ; preds = %67
  unreachable
}