; Function Attrs: nounwind uwtable
define internal fastcc void @verify_dictoptions(i32 noundef %0, ptr noundef %1) unnamed_addr #0 {
  %3 = load i8, ptr @IsUnderPostmaster, align 1, !range !4, !noundef !5
  %4 = trunc nuw i8 %3 to i1
  br i1 %4, label %5, label %30

5:                                                ; preds = %2
  %6 = zext i32 %0 to i64
  %7 = tail call ptr @SearchSysCache1(i32 noundef 80, i64 noundef %6) #10
  %.not = icmp eq ptr %7, null
  br i1 %.not, label %8, label %11

8:                                                ; preds = %5
  %9 = tail call zeroext i1 @errstart_cold(i32 noundef 21, ptr noundef null) #11
  tail call void @llvm.assume(i1 %9)
  %10 = tail call i32 (ptr, ...) @errmsg_internal(ptr noundef nonnull @.str.33, i32 noundef %0) #10
  tail call void @errfinish(ptr noundef nonnull @.str.1, i32 noundef 361, ptr noundef nonnull @__func__.verify_dictoptions) #10
  unreachable

11:                                               ; preds = %5
  %12 = getelementptr i8, ptr %7, i64 16
  %.val = load ptr, ptr %12, align 8
  %13 = getelementptr inbounds nuw i8, ptr %.val, i64 22
  %14 = load i8, ptr %13, align 2
  %15 = zext i8 %14 to i64
  %16 = getelementptr inbounds nuw i8, ptr %.val, i64 %15
  %17 = getelementptr inbounds nuw i8, ptr %16, i64 72
  %18 = load i32, ptr %17, align 4
  %.not12 = icmp eq i32 %18, 0
  br i1 %.not12, label %19, label %25

19:                                               ; preds = %11
  %.not13 = icmp eq ptr %1, null
  br i1 %.not13, label %29, label %20

20:                                               ; preds = %19
  %21 = tail call zeroext i1 @errstart_cold(i32 noundef 21, ptr noundef null) #11
  tail call void @llvm.assume(i1 %21)
  %22 = tail call i32 @errcode(i32 noundef 16801924) #10
  %23 = getelementptr inbounds nuw i8, ptr %16, i64 4
  %24 = tail call i32 (ptr, ...) @errmsg(ptr noundef nonnull @.str.34, ptr noundef nonnull %23) #10
  tail call void @errfinish(ptr noundef nonnull @.str.1, i32 noundef 373, ptr noundef nonnull @__func__.verify_dictoptions) #10
  unreachable

25:                                               ; preds = %11
  %26 = tail call ptr @copyObjectImpl(ptr noundef %1) #10
  %27 = ptrtoint ptr %26 to i64
  %28 = tail call i64 @OidFunctionCall1Coll(i32 noundef %18, i32 noundef 0, i64 noundef %27) #10
  br label %29

29:                                               ; preds = %19, %25
  tail call void @ReleaseSysCache(ptr noundef nonnull %7) #10
  br label %30

30:                                               ; preds = %2, %29
  ret void
}